; Function Attrs: nounwind sspstrong uwtable
define internal fastcc range(i32 0, 2) i32 @inspect_ipv4_add_drop_membership(i64 noundef %0, i64 noundef %1) unnamed_addr #0 {
  %3 = alloca %struct.ip_mreq, align 8
  %4 = alloca [16 x i8], align 16
  %5 = inttoptr i64 %0 to ptr
  %6 = getelementptr inbounds nuw i8, ptr %5, i64 16
  %7 = load i64, ptr %6, align 8, !tbaa !15
  switch i64 %7, label %30 [
    i64 8, label %8
    i64 12, label %28
  ]

8:                                                ; preds = %2
  call void @llvm.lifetime.start.p0(i64 8, ptr nonnull %3) #6
  call void @llvm.lifetime.start.p0(i64 16, ptr nonnull %4) #6
  %9 = load i64, ptr %5, align 8, !tbaa !13, !noalias !113
  %10 = and i64 %9, 8192
  %.not.i.i.i = icmp eq i64 %10, 0
  %11 = getelementptr inbounds nuw i8, ptr %5, i64 24
  br i1 %.not.i.i.i, label %RSTRING_PTR.exit.i, label %12

12:                                               ; preds = %8
  %.sroa.2.0.copyload.i.i = load ptr, ptr %11, align 8
  br label %RSTRING_PTR.exit.i

RSTRING_PTR.exit.i:                               ; preds = %12, %8
  %.sroa.2.0.i.i = phi ptr [ %.sroa.2.0.copyload.i.i, %12 ], [ %11, %8 ]
  %13 = load i64, ptr %.sroa.2.0.i.i, align 1
  store i64 %13, ptr %3, align 8
  %14 = call ptr @inet_ntop(i32 noundef 2, ptr noundef nonnull %3, ptr noundef nonnull %4, i32 noundef 16) #6
  %15 = icmp eq ptr %14, null
  br i1 %15, label %16, label %18

16:                                               ; preds = %RSTRING_PTR.exit.i
  %17 = call i64 @rb_str_cat(i64 noundef %1, ptr noundef nonnull @.str.36, i64 noundef 16) #6
  br label %20

18:                                               ; preds = %RSTRING_PTR.exit.i
  %19 = call i64 (i64, ptr, ...) @rb_str_catf(i64 noundef %1, ptr noundef nonnull @.str.19, ptr noundef nonnull %4) #6
  br label %20

20:                                               ; preds = %18, %16
  %21 = getelementptr inbounds nuw i8, ptr %3, i64 4
  %22 = call ptr @inet_ntop(i32 noundef 2, ptr noundef nonnull %21, ptr noundef nonnull %4, i32 noundef 16) #6
  %23 = icmp eq ptr %22, null
  br i1 %23, label %24, label %26

24:                                               ; preds = %20
  %25 = call i64 (i64, ptr, ...) @rb_str_catf(i64 noundef %1, ptr noundef nonnull @.str.36) #6
  br label %inspect_ipv4_mreq.exit

26:                                               ; preds = %20
  %27 = call i64 (i64, ptr, ...) @rb_str_catf(i64 noundef %1, ptr noundef nonnull @.str.19, ptr noundef nonnull %4) #6
  br label %inspect_ipv4_mreq.exit

inspect_ipv4_mreq.exit:                           ; preds = %24, %26
  call void @llvm.lifetime.end.p0(i64 16, ptr nonnull %4) #6
  call void @llvm.lifetime.end.p0(i64 8, ptr nonnull %3) #6
  br label %30

28:                                               ; preds = %2
  %29 = tail call fastcc i32 @inspect_ipv4_mreqn(i64 noundef %0, i64 noundef %1)
  br label %30

30:                                               ; preds = %2, %28, %inspect_ipv4_mreq.exit
  %.0 = phi i32 [ 1, %inspect_ipv4_mreq.exit ], [ %29, %28 ], [ 0, %2 ]
  ret i32 %.0
}